; Function Attrs: mustprogress uwtable
define internal void @_ZL12InfoCallbackPK6ssl_stii(ptr noundef %0, i32 noundef %1, i32 %2) #10 {
  %4 = icmp eq i32 %1, 32
  br i1 %4, label %5, label %18

5:                                                ; preds = %3
  %6 = load i32, ptr @_ZL14g_config_index, align 4, !tbaa !6
  %7 = tail call noundef ptr @SSL_get_ex_data(ptr noundef %0, i32 noundef %6)
  %8 = getelementptr inbounds nuw i8, ptr %7, i64 824
  %9 = load i8, ptr %8, align 8, !tbaa !28, !range !39, !noundef !40
  %10 = trunc nuw i8 %9 to i1
  br i1 %10, label %11, label %14

11:                                               ; preds = %5
  %12 = load ptr, ptr @stderr, align 8, !tbaa !33
  %13 = tail call i64 @fwrite(ptr nonnull @.str.17, i64 20, i64 1, ptr %12) #32
  tail call void @abort() #30
  unreachable

14:                                               ; preds = %5
  %15 = load i32, ptr @_ZL13g_state_index, align 4, !tbaa !6
  %16 = tail call noundef ptr @SSL_get_ex_data(ptr noundef %0, i32 noundef %15)
  %17 = getelementptr inbounds nuw i8, ptr %16, i64 73
  store i8 1, ptr %17, align 1, !tbaa !148
  br label %18

18:                                               ; preds = %14, %3
  ret void
}